CCS PCH C Compiler, Version 5.008, 5967               11-avr.-20 18:23

               Filename:   W:\Ephec\ElecDigitalProjet\ccs\PIC-codeC\main.lst

               ROM used:   434 bytes (1%)
                           Largest free fragment is 32334
               RAM used:   14 (1%) at main() level
                           20 (1%) worst case
               Stack used: 2 locations
               Stack size: 31

*
0000:  GOTO   011C
.................... #include <main.h> 
.................... #include <18F458.h> 
.................... //////// Standard Header file for the PIC18F458 device //////////////// 
.................... #device PIC18F458 
*
0016:  CLRF   01
0018:  CLRF   02
001A:  CLRF   00
001C:  CLRF   03
001E:  MOVF   12,W
0020:  BNZ   0026
0022:  MOVF   11,W
0024:  BZ    0056
0026:  MOVLW  10
0028:  MOVWF  13
002A:  BCF    FD8.0
002C:  RLCF   0F,F
002E:  RLCF   10,F
0030:  RLCF   00,F
0032:  RLCF   03,F
0034:  MOVF   12,W
0036:  SUBWF  03,W
0038:  BNZ   003E
003A:  MOVF   11,W
003C:  SUBWF  00,W
003E:  BNC   004E
0040:  MOVF   11,W
0042:  SUBWF  00,F
0044:  BTFSS  FD8.0
0046:  DECF   03,F
0048:  MOVF   12,W
004A:  SUBWF  03,F
004C:  BSF    FD8.0
004E:  RLCF   01,F
0050:  RLCF   02,F
0052:  DECFSZ 13,F
0054:  BRA    002A
0056:  RETURN 0
....................  
.................... #list 
....................  
.................... #device ADC=16 
....................  
.................... #FUSES NOWDT                    //No Watch Dog Timer 
.................... #FUSES WDT128                   //Watch Dog Timer uses 1:128 Postscale 
.................... #FUSES NOBROWNOUT               //No brownout reset 
.................... #FUSES NOLVP                    //No low voltage prgming, B3(PIC16) or B5(PIC18) used for I/O 
....................  
.................... #use delay(crystal=20MHz) 
*
00F4:  CLRF   FEA
00F6:  MOVLW  0D
00F8:  MOVWF  FE9
00FA:  MOVF   FEF,W
00FC:  BZ    0118
00FE:  MOVLW  06
0100:  MOVWF  01
0102:  CLRF   00
0104:  DECFSZ 00,F
0106:  BRA    0104
0108:  DECFSZ 01,F
010A:  BRA    0102
010C:  MOVLW  7B
010E:  MOVWF  00
0110:  DECFSZ 00,F
0112:  BRA    0110
0114:  DECFSZ FEF,F
0116:  BRA    00FE
0118:  GOTO   01AA (RETURN)
.................... #use rs232(baud=9600,parity=N,xmit=0,rcv=0,bits=8,stream=PORT1) 
....................  
.................... #define LED PIN_None 
.................... #define DELAY 1000 
....................  
....................  
....................  
.................... #use fast_io(C) 
....................  
.................... #define trigger pin_C0 
.................... #define echo pin_C1 
.................... #define dot pin_E2 
.................... #define in pin_C7 
.................... #define out pin_C6 
....................  
.................... #int_TIMER1 
....................  
.................... int16 time, distance, x, i; 
....................  
.................... /* 
.................... * transofmation de la valeur en valeur base 16 
.................... */ 
.................... int16 outputValueParser(int16 value){ 
*
0076:  CLRF   0E
....................    int output = 0; 
....................    if (value < 10) { output = value;} 
0078:  MOVF   0D,F
007A:  BNZ   0088
007C:  MOVF   0C,W
007E:  SUBLW  09
0080:  BNC   0088
0082:  MOVFF  0C,0E
0086:  BRA    00E6
....................    else { 
....................     x = value; 
0088:  MOVFF  0D,09
008C:  MOVFF  0C,08
....................     x = x % 10; 
0090:  MOVFF  09,10
0094:  MOVFF  08,0F
0098:  CLRF   12
009A:  MOVLW  0A
009C:  MOVWF  11
009E:  RCALL  0016
00A0:  MOVFF  00,08
00A4:  MOVFF  03,09
....................     i = value; 
00A8:  MOVFF  0D,0B
00AC:  MOVFF  0C,0A
....................     i = i/10; 
00B0:  MOVFF  0B,10
00B4:  MOVFF  0A,0F
00B8:  CLRF   12
00BA:  MOVLW  0A
00BC:  MOVWF  11
00BE:  RCALL  0016
00C0:  MOVFF  02,0B
00C4:  MOVFF  01,0A
....................      
....................     output = x + i*16; 
00C8:  RLCF   0A,W
00CA:  MOVWF  02
00CC:  RLCF   0B,W
00CE:  MOVWF  03
00D0:  RLCF   02,F
00D2:  RLCF   03,F
00D4:  RLCF   02,F
00D6:  RLCF   03,F
00D8:  RLCF   02,F
00DA:  RLCF   03,F
00DC:  MOVLW  F0
00DE:  ANDWF  02,F
00E0:  MOVF   02,W
00E2:  ADDWF  08,W
00E4:  MOVWF  0E
....................    } 
....................    return output; 
00E6:  CLRF   03
00E8:  MOVFF  0E,01
00EC:  MOVFF  03,02
00F0:  GOTO   019A (RETURN)
.................... } 
....................  
.................... /* 
.................... * parsing temps => distance 
.................... */ 
.................... int16 parseDist(int16 time){ 
....................   return time / (340) ; 
*
0058:  MOVFF  0D,10
005C:  MOVFF  0C,0F
0060:  MOVLW  01
0062:  MOVWF  12
0064:  MOVLW  54
0066:  MOVWF  11
0068:  RCALL  0016
006A:  MOVFF  02,03
006E:  MOVFF  02,02
0072:  GOTO   015C (RETURN)
.................... } 
....................  
.................... /* 
.................... * trigger de la sonde 
.................... */ 
.................... void triggerSonde(){ 
....................    output_high(trigger); 
*
0004:  BSF    F8B.0
....................    delay_us(10); 
0006:  MOVLW  10
0008:  MOVWF  00
000A:  DECFSZ 00,F
000C:  BRA    000A
000E:  NOP   
....................    output_low(trigger); 
0010:  BCF    F8B.0
0012:  GOTO   013E (RETURN)
.................... } 
....................  
.................... /* 
.................... * fonction principale 
.................... */ 
.................... void main() 
*
011C:  CLRF   FF8
011E:  BCF    FD0.7
0120:  BSF    00.0
0122:  BSF    FC1.0
0124:  BSF    FC1.1
0126:  BSF    FC1.2
0128:  BCF    FC1.3
012A:  MOVLW  07
012C:  MOVWF  FB4
.................... { 
....................    setup_low_volt_detect(FALSE); 
012E:  CLRF   FD2
....................    set_tris_c(2); // set RC1 as input (ECHO) 
0130:  MOVLW  02
0132:  MOVWF  F94
....................     
....................    setup_timer_1( T1_INTERNAL | T1_DIV_BY_1  ); 
0134:  MOVLW  85
0136:  MOVWF  FCD
....................     
....................    while(true) 
....................    { 
....................     
....................    time = 0; 
0138:  CLRF   05
013A:  CLRF   04
....................    triggerSonde(); 
013C:  BRA    0004
....................     
....................    while(input(echo) == 0){} // attente début 
013E:  BTFSS  F82.1
0140:  BRA    013E
....................    set_timer1(0); 
0142:  CLRF   FCF
0144:  CLRF   FCE
....................    while(input(echo) == 1){} // attente fin ou overflow 
0146:  BTFSC  F82.1
0148:  BRA    0146
....................    time = get_timer1(); 
014A:  MOVF   FCE,W
014C:  MOVWF  04
014E:  MOVFF  FCF,05
....................     
....................    distance = parseDist(time); 
0152:  MOVFF  05,0D
0156:  MOVFF  04,0C
015A:  BRA    0058
015C:  MOVFF  02,07
0160:  MOVFF  01,06
....................     
....................    if(distance > 99){ 
0164:  MOVF   07,F
0166:  BNZ   016E
0168:  MOVF   06,W
016A:  SUBLW  63
016C:  BC    018C
....................       distance = distance / 10; 
016E:  MOVFF  07,10
0172:  MOVFF  06,0F
0176:  CLRF   12
0178:  MOVLW  0A
017A:  MOVWF  11
017C:  RCALL  0016
017E:  MOVFF  02,07
0182:  MOVFF  01,06
....................       output_high(dot); 
0186:  BCF    F96.2
0188:  BSF    F8D.2
....................    } 
018A:  BRA    0190
....................    else { 
....................       output_low(dot); 
018C:  BCF    F96.2
018E:  BCF    F8D.2
....................    } 
....................     
....................    output_b(outputValueParser(distance)); 
0190:  MOVFF  07,0D
0194:  MOVFF  06,0C
0198:  BRA    0076
019A:  CLRF   F93
019C:  MOVFF  01,F8A
....................     
....................     
....................    delay_ms(500); 
01A0:  MOVLW  02
01A2:  MOVWF  0C
01A4:  MOVLW  FA
01A6:  MOVWF  0D
01A8:  BRA    00F4
01AA:  DECFSZ 0C,F
01AC:  BRA    01A4
01AE:  BRA    0138
....................    } 
....................  
.................... } 
....................  
01B0:  SLEEP 

Configuration Fuses:
   Word  1: 2200   HS NOOSCSEN
   Word  2: 0E0C   PUT NOBROWNOUT BORV25 NOWDT WDT128
   Word  3: 0000  
   Word  4: 0081   STVREN NOLVP NODEBUG
   Word  5: C00F   NOPROTECT NOCPB NOCPD
   Word  6: E00F   NOWRT NOWRTC NOWRTB NOWRTD
   Word  7: 400F   NOEBTR NOEBTRB
